ccollections
OrderedDict
p0
((lp1
(lp2
S'CS'
p3
ag0
((lp4
(lp5
S'chic1_R_1'
p6
ag0
((lp7
(lp8
S'lth'
p9
aF0.18133758813974257
aa(lp10
S'lth_err'
p11
aF0.00020775858283808685
aa(lp12
S'lph'
p13
aF-0.19042327597971026
aa(lp14
S'lph_err'
p15
aF0.00010886990852369432
aa(lp16
S'ltp'
p17
aF-0.04833396128096512
aa(lp18
S'ltp_err'
p19
aF0.000109017075092836
aa(lp20
S'chi2'
p21
aF24992.429990539666
aa(lp22
S'ndf'
p23
aL24572L
aatp24
Rp25
aa(lp26
S'chic1_R_10o11'
p27
ag0
((lp28
(lp29
S'lth'
p30
aF0.12770323476977996
aa(lp31
S'lth_err'
p32
aF0.00019974965551153634
aa(lp33
S'lph'
p34
aF-0.1363011684777058
aa(lp35
S'lph_err'
p36
aF0.00010772310298776571
aa(lp37
S'ltp'
p38
aF-0.034240344053885687
aa(lp39
S'ltp_err'
p40
aF0.00010792265658200132
aa(lp41
S'chi2'
p42
aF25276.845651120944
aa(lp43
S'ndf'
p44
aL24572L
aatp45
Rp46
aa(lp47
S'chic1_R_14o33'
p48
ag0
((lp49
(lp50
S'lth'
p51
aF-0.13214930283863435
aa(lp52
S'lth_err'
p53
aF0.00016402422847660965
aa(lp54
S'lph'
p55
aF0.12493815313803254
aa(lp56
S'lph_err'
p57
aF0.00010146271010586715
aa(lp58
S'ltp'
p59
aF0.034189991060473136
aa(lp60
S'ltp_err'
p61
aF0.00010161353920389383
aa(lp62
S'chi2'
p63
aF24739.6544586928
aa(lp64
S'ndf'
p65
aL24572L
aatp66
Rp67
aa(lp68
S'chic1_R_18o31'
p69
ag0
((lp70
(lp71
S'lth'
p72
aF-0.0534718496441811
aa(lp73
S'lth_err'
p74
aF0.0001748117568098228
aa(lp75
S'lph'
p76
aF0.045297617170228066
aa(lp77
S'lph_err'
p78
aF0.00010378564055024733
aa(lp79
S'ltp'
p80
aF0.013609604571504489
aa(lp81
S'ltp_err'
p82
aF0.00010368998352141198
aa(lp83
S'chi2'
p84
aF24963.141882087803
aa(lp85
S'ndf'
p86
aL24572L
aatp87
Rp88
aa(lp89
S'chic1_R_22o29'
p90
ag0
((lp91
(lp92
S'lth'
p93
aF0.04233261951519425
aa(lp94
S'lth_err'
p95
aF0.0001879913736241984
aa(lp96
S'lph'
p97
aF-0.05049657866046042
aa(lp98
S'lph_err'
p99
aF0.00010611347091094426
aa(lp100
S'ltp'
p101
aF-0.01163627759630949
aa(lp102
S'ltp_err'
p103
aF0.00010602722224739733
aa(lp104
S'chi2'
p105
aF24778.642474912853
aa(lp106
S'ndf'
p107
aL24572L
aatp108
Rp109
aa(lp110
S'chic1_R_2o9'
p111
ag0
((lp112
(lp113
S'lth'
p114
aF-0.2289929489049592
aa(lp115
S'lth_err'
p116
aF0.00015078589157155014
aa(lp117
S'lph'
p118
aF0.2217067693531333
aa(lp119
S'lph_err'
p120
aF9.81115195896226e-05
aa(lp121
S'ltp'
p122
aF0.059867174201101186
aa(lp123
S'ltp_err'
p124
aF9.884800244378923e-05
aa(lp125
S'chi2'
p126
aF24869.692784821713
aa(lp127
S'ndf'
p128
aL24572L
aatp129
Rp130
aa(lp131
S'chic1_R_6o7'
p132
ag0
((lp133
(lp134
S'lth'
p135
aF0.0981264385710592
aa(lp136
S'lth_err'
p137
aF0.0001956888072841343
aa(lp138
S'lph'
p139
aF-0.10608455315817666
aa(lp140
S'lph_err'
p141
aF0.00010721939598700198
aa(lp142
S'ltp'
p143
aF-0.026271031081850613
aa(lp144
S'ltp_err'
p145
aF0.00010729107309483677
aa(lp146
S'chi2'
p147
aF25136.92478719487
aa(lp148
S'ndf'
p149
aL24572L
aatp150
Rp151
aa(lp152
S'chic2_R1_0_R2_0'
p153
ag0
((lp154
(lp155
S'lth'
p156
aF0.4080087778018635
aa(lp157
S'lth_err'
p158
aF0.00024295677053874483
aa(lp159
S'lph'
p160
aF-0.4176846551143954
aa(lp161
S'lph_err'
p162
aF0.00011195887362261236
aa(lp163
S'ltp'
p164
aF-0.10996037951497535
aa(lp165
S'ltp_err'
p166
aF0.00011511876714708681
aa(lp167
S'chi2'
p168
aF24632.182265391395
aa(lp169
S'ndf'
p170
aL24572L
aatp171
Rp172
aa(lp173
S'chic2_R1_0_R2_134o214'
p174
ag0
((lp175
(lp176
S'lth'
p177
aF-0.08182547091804176
aa(lp178
S'lth_err'
p179
aF0.00018360300523740576
aa(lp180
S'lph'
p181
aF0.08834333238681318
aa(lp182
S'lph_err'
p183
aF0.00011057740830585414
aa(lp184
S'ltp'
p185
aF0.022002969247010496
aa(lp186
S'ltp_err'
p187
aF0.00011081763518000638
aa(lp188
S'chi2'
p189
aF25088.264368302076
aa(lp190
S'ndf'
p191
aL24572L
aatp192
Rp193
aa(lp194
S'chic2_R1_0_R2_17o26'
p195
ag0
((lp196
(lp197
S'lth'
p198
aF-0.09980640083409831
aa(lp199
S'lth_err'
p200
aF0.00030250751954470444
aa(lp201
S'lph'
p202
aF0.10690978062081906
aa(lp203
S'lph_err'
p204
aF0.00018917541086881714
aa(lp205
S'ltp'
p206
aF0.02707783610848523
aa(lp207
S'ltp_err'
p208
aF0.0001889862647751616
aa(lp209
S'chi2'
p210
aF24599.835689504784
aa(lp211
S'ndf'
p212
aL24572L
aatp213
Rp214
aa(lp215
S'chic2_R1_0_R2_25o58'
p216
ag0
((lp217
(lp218
S'lth'
p219
aF0.05578686611243417
aa(lp220
S'lth_err'
p221
aF0.0001934512100377429
aa(lp222
S'lph'
p223
aF-0.05378969921305789
aa(lp224
S'lph_err'
p225
aF0.00010844858365370451
aa(lp226
S'ltp'
p227
aF-0.015151507902701884
aa(lp228
S'ltp_err'
p229
aF0.00010851349068917158
aa(lp230
S'chi2'
p231
aF24992.17841456801
aa(lp232
S'ndf'
p233
aL24572L
aatp234
Rp235
aa(lp236
S'chic2_R1_0_R2_35o62'
p237
ag0
((lp238
(lp239
S'lth'
p240
aF-0.03977552862608919
aa(lp241
S'lth_err'
p242
aF0.0001800451904818437
aa(lp243
S'lph'
p244
aF0.04464069631524638
aa(lp245
S'lph_err'
p246
aF0.00010610408093761091
aa(lp247
S'ltp'
p248
aF0.010318639502022015
aa(lp249
S'ltp_err'
p250
aF0.00010621002486672104
aa(lp251
S'chi2'
p252
aF25110.53858901658
aa(lp253
S'ndf'
p254
aL24572L
aatp255
Rp256
aa(lp257
S'chic2_R1_0_R2_5o18'
p258
ag0
((lp259
(lp260
S'lth'
p261
aF0.17240530181491298
aa(lp262
S'lth_err'
p263
aF0.00021038319804046252
aa(lp264
S'lph'
p265
aF-0.17453879078741982
aa(lp266
S'lph_err'
p267
aF0.00011074298218330233
aa(lp268
S'ltp'
p269
aF-0.046484046796464305
aa(lp270
S'ltp_err'
p271
aF0.00011101306650055547
aa(lp272
S'chi2'
p273
aF24992.204170995556
aa(lp274
S'ndf'
p275
aL24572L
aatp276
Rp277
aa(lp278
S'chic2_R1_0_R2_7o10'
p279
ag0
((lp280
(lp281
S'lth'
p282
aF-0.13053955851857263
aa(lp283
S'lth_err'
p284
aF0.00016735637927010386
aa(lp285
S'lph'
p286
aF0.1386418902637917
aa(lp287
S'lph_err'
p288
aF0.00010335794247888604
aa(lp289
S'ltp'
p290
aF0.03488585187036351
aa(lp291
S'ltp_err'
p292
aF0.00010381214278198884
aa(lp293
S'chi2'
p294
aF24656.525325629395
aa(lp295
S'ndf'
p296
aL24572L
aatp297
Rp298
aatp299
Rp300
aatp301
Rp302
.